; ModuleID = '22/1079.c'
source_filename = "22/1079.c"
target datalayout = "e-m:e-p270:32:32-p271:32:32-p272:64:64-i64:64-f80:128-n8:16:32:64-S128"
target triple = "x86_64-pc-linux-gnu"

@.str = private unnamed_addr constant [5 x i8] c"%d%c\00", align 1
@.str.1 = private unnamed_addr constant [3 x i8] c"No\00", align 1
@.str.2 = private unnamed_addr constant [3 x i8] c"%d\00", align 1

; Function Attrs: noinline nounwind uwtable
define dso_local i32 @main() #0 {
  %1 = alloca i32, align 4
  %2 = alloca [300 x i32], align 16
  %3 = alloca i32, align 4
  %4 = alloca i8, align 1
  %5 = alloca i32, align 4
  %6 = alloca i32, align 4
  %7 = alloca i32, align 4
  store i32 0, i32* %1, align 4
  store i32 0, i32* %3, align 4
  br label %8

8:                                                ; preds = %15, %0
  %9 = load i32, i32* %3, align 4
  %10 = sext i32 %9 to i64
  %11 = getelementptr inbounds [300 x i32], [300 x i32]* %2, i64 0, i64 %10
  %12 = call i32 (i8*, ...) @__isoc99_scanf(i8* getelementptr inbounds ([5 x i8], [5 x i8]* @.str, i64 0, i64 0), i32* %11, i8* %4)
  %13 = load i32, i32* %3, align 4
  %14 = add nsw i32 %13, 1
  store i32 %14, i32* %3, align 4
  br label %15

15:                                               ; preds = %8
  %16 = load i8, i8* %4, align 1
  %17 = sext i8 %16 to i32
  %18 = icmp ne i32 %17, 10
  br i1 %18, label %8, label %19

19:                                               ; preds = %15
  %20 = load i32, i32* %3, align 4
  %21 = icmp eq i32 %20, 1
  br i1 %21, label %22, label %24

22:                                               ; preds = %19
  %23 = call i32 (i8*, ...) @printf(i8* getelementptr inbounds ([3 x i8], [3 x i8]* @.str.1, i64 0, i64 0))
  br label %114

24:                                               ; preds = %19
  store i32 0, i32* %5, align 4
  br label %25

25:                                               ; preds = %72, %24
  %26 = load i32, i32* %5, align 4
  %27 = load i32, i32* %3, align 4
  %28 = sub nsw i32 %27, 1
  %29 = icmp slt i32 %26, %28
  br i1 %29, label %30, label %75

30:                                               ; preds = %25
  store i32 0, i32* %6, align 4
  br label %31

31:                                               ; preds = %68, %30
  %32 = load i32, i32* %6, align 4
  %33 = load i32, i32* %3, align 4
  %34 = load i32, i32* %5, align 4
  %35 = sub nsw i32 %33, %34
  %36 = sub nsw i32 %35, 1
  %37 = icmp slt i32 %32, %36
  br i1 %37, label %38, label %71

38:                                               ; preds = %31
  %39 = load i32, i32* %6, align 4
  %40 = sext i32 %39 to i64
  %41 = getelementptr inbounds [300 x i32], [300 x i32]* %2, i64 0, i64 %40
  %42 = load i32, i32* %41, align 4
  %43 = load i32, i32* %6, align 4
  %44 = add nsw i32 %43, 1
  %45 = sext i32 %44 to i64
  %46 = getelementptr inbounds [300 x i32], [300 x i32]* %2, i64 0, i64 %45
  %47 = load i32, i32* %46, align 4
  %48 = icmp slt i32 %42, %47
  br i1 %48, label %49, label %67

49:                                               ; preds = %38
  %50 = load i32, i32* %6, align 4
  %51 = sext i32 %50 to i64
  %52 = getelementptr inbounds [300 x i32], [300 x i32]* %2, i64 0, i64 %51
  %53 = load i32, i32* %52, align 4
  store i32 %53, i32* %7, align 4
  %54 = load i32, i32* %6, align 4
  %55 = add nsw i32 %54, 1
  %56 = sext i32 %55 to i64
  %57 = getelementptr inbounds [300 x i32], [300 x i32]* %2, i64 0, i64 %56
  %58 = load i32, i32* %57, align 4
  %59 = load i32, i32* %6, align 4
  %60 = sext i32 %59 to i64
  %61 = getelementptr inbounds [300 x i32], [300 x i32]* %2, i64 0, i64 %60
  store i32 %58, i32* %61, align 4
  %62 = load i32, i32* %7, align 4
  %63 = load i32, i32* %6, align 4
  %64 = add nsw i32 %63, 1
  %65 = sext i32 %64 to i64
  %66 = getelementptr inbounds [300 x i32], [300 x i32]* %2, i64 0, i64 %65
  store i32 %62, i32* %66, align 4
  br label %67

67:                                               ; preds = %49, %38
  br label %68

68:                                               ; preds = %67
  %69 = load i32, i32* %6, align 4
  %70 = add nsw i32 %69, 1
  store i32 %70, i32* %6, align 4
  br label %31

71:                                               ; preds = %31
  br label %72

72:                                               ; preds = %71
  %73 = load i32, i32* %5, align 4
  %74 = add nsw i32 %73, 1
  store i32 %74, i32* %5, align 4
  br label %25

75:                                               ; preds = %25
  %76 = load i32, i32* %3, align 4
  %77 = sub nsw i32 %76, 1
  %78 = sext i32 %77 to i64
  %79 = getelementptr inbounds [300 x i32], [300 x i32]* %2, i64 0, i64 %78
  %80 = load i32, i32* %79, align 4
  %81 = getelementptr inbounds [300 x i32], [300 x i32]* %2, i64 0, i64 0
  %82 = load i32, i32* %81, align 16
  %83 = icmp eq i32 %80, %82
  br i1 %83, label %84, label %86

84:                                               ; preds = %75
  %85 = call i32 (i8*, ...) @printf(i8* getelementptr inbounds ([3 x i8], [3 x i8]* @.str.1, i64 0, i64 0))
  br label %113

86:                                               ; preds = %75
  store i32 1, i32* %5, align 4
  br label %87

87:                                               ; preds = %109, %86
  %88 = load i32, i32* %5, align 4
  %89 = load i32, i32* %3, align 4
  %90 = icmp slt i32 %88, %89
  br i1 %90, label %91, label %112

91:                                               ; preds = %87
  %92 = load i32, i32* %5, align 4
  %93 = sext i32 %92 to i64
  %94 = getelementptr inbounds [300 x i32], [300 x i32]* %2, i64 0, i64 %93
  %95 = load i32, i32* %94, align 4
  %96 = load i32, i32* %5, align 4
  %97 = sub nsw i32 %96, 1
  %98 = sext i32 %97 to i64
  %99 = getelementptr inbounds [300 x i32], [300 x i32]* %2, i64 0, i64 %98
  %100 = load i32, i32* %99, align 4
  %101 = icmp slt i32 %95, %100
  br i1 %101, label %102, label %108

102:                                              ; preds = %91
  %103 = load i32, i32* %5, align 4
  %104 = sext i32 %103 to i64
  %105 = getelementptr inbounds [300 x i32], [300 x i32]* %2, i64 0, i64 %104
  %106 = load i32, i32* %105, align 4
  %107 = call i32 (i8*, ...) @printf(i8* getelementptr inbounds ([3 x i8], [3 x i8]* @.str.2, i64 0, i64 0), i32 %106)
  br label %112

108:                                              ; preds = %91
  br label %109

109:                                              ; preds = %108
  %110 = load i32, i32* %5, align 4
  %111 = add nsw i32 %110, 1
  store i32 %111, i32* %5, align 4
  br label %87

112:                                              ; preds = %102, %87
  br label %113

113:                                              ; preds = %112, %84
  br label %114

114:                                              ; preds = %113, %22
  %115 = load i32, i32* %1, align 4
  ret i32 %115
}

declare dso_local i32 @__isoc99_scanf(i8*, ...) #1

declare dso_local i32 @printf(i8*, ...) #1


!llvm.module.flags = !{!0}
!llvm.ident = !{!1}

!0 = !{i32 1, !"wchar_size", i32 4}
!1 = !{!"clang version 10.0.0-4ubuntu1 "}
