; ModuleID = 'source-C-CXX/21/1079.c'
source_filename = "source-C-CXX/21/1079.c"
target datalayout = "e-m:e-p270:32:32-p271:32:32-p272:64:64-i64:64-f80:128-n8:16:32:64-S128"
target triple = "x86_64-pc-linux-gnu"

@.str = private unnamed_addr constant [5 x i8] c"%d%c\00", align 1
@.str.1 = private unnamed_addr constant [3 x i8] c"No\00", align 1
@.str.2 = private unnamed_addr constant [3 x i8] c"%d\00", align 1

; Function Attrs: nofree nounwind sspstrong uwtable
define dso_local i32 @main() local_unnamed_addr #0 {
  %1 = alloca [300 x i32], align 16
  %2 = alloca i8, align 1
  %3 = bitcast [300 x i32]* %1 to i8*
  call void @llvm.lifetime.start.p0i8(i64 1200, i8* nonnull %3) #4
  call void @llvm.lifetime.start.p0i8(i64 1, i8* nonnull %2) #4
  br label %4

4:                                                ; preds = %4, %0
  %5 = phi i64 [ %8, %4 ], [ 0, %0 ]
  %6 = getelementptr inbounds [300 x i32], [300 x i32]* %1, i64 0, i64 %5
  %7 = call i32 (i8*, ...) @__isoc99_scanf(i8* getelementptr inbounds ([5 x i8], [5 x i8]* @.str, i64 0, i64 0), i32* nonnull %6, i8* nonnull %2)
  %8 = add nuw i64 %5, 1
  %9 = load i8, i8* %2, align 1, !tbaa !5
  %10 = icmp eq i8 %9, 10
  br i1 %10, label %11, label %4, !llvm.loop !8

11:                                               ; preds = %4
  %12 = trunc i64 %5 to i32
  %13 = icmp eq i32 %12, 0
  br i1 %13, label %16, label %14

14:                                               ; preds = %11
  %15 = getelementptr inbounds [300 x i32], [300 x i32]* %1, i64 0, i64 0
  br label %18

16:                                               ; preds = %11
  %17 = call i32 (i8*, ...) @printf(i8* nonnull dereferenceable(1) getelementptr inbounds ([3 x i8], [3 x i8]* @.str.1, i64 0, i64 0))
  br label %81

18:                                               ; preds = %14, %56
  %19 = phi i32 [ 0, %14 ], [ %57, %56 ]
  %20 = sub i32 %12, %19
  %21 = zext i32 %20 to i64
  %22 = icmp slt i32 %19, %12
  br i1 %22, label %23, label %56

23:                                               ; preds = %18
  %24 = load i32, i32* %15, align 16, !tbaa !10
  %25 = and i64 %21, 1
  %26 = icmp eq i32 %20, 1
  br i1 %26, label %45, label %27

27:                                               ; preds = %23
  %28 = and i64 %21, 4294967294
  br label %29

29:                                               ; preds = %84, %27
  %30 = phi i32 [ %24, %27 ], [ %85, %84 ]
  %31 = phi i64 [ 0, %27 ], [ %41, %84 ]
  %32 = phi i64 [ %28, %27 ], [ %86, %84 ]
  %33 = or i64 %31, 1
  %34 = getelementptr inbounds [300 x i32], [300 x i32]* %1, i64 0, i64 %33
  %35 = load i32, i32* %34, align 4, !tbaa !10
  %36 = icmp slt i32 %30, %35
  br i1 %36, label %37, label %39

37:                                               ; preds = %29
  %38 = getelementptr inbounds [300 x i32], [300 x i32]* %1, i64 0, i64 %31
  store i32 %35, i32* %38, align 8, !tbaa !10
  store i32 %30, i32* %34, align 4, !tbaa !10
  br label %39

39:                                               ; preds = %29, %37
  %40 = phi i32 [ %35, %29 ], [ %30, %37 ]
  %41 = add nuw nsw i64 %31, 2
  %42 = getelementptr inbounds [300 x i32], [300 x i32]* %1, i64 0, i64 %41
  %43 = load i32, i32* %42, align 8, !tbaa !10
  %44 = icmp slt i32 %40, %43
  br i1 %44, label %82, label %84

45:                                               ; preds = %84, %23
  %46 = phi i32 [ %24, %23 ], [ %85, %84 ]
  %47 = phi i64 [ 0, %23 ], [ %41, %84 ]
  %48 = icmp eq i64 %25, 0
  br i1 %48, label %56, label %49

49:                                               ; preds = %45
  %50 = add nuw nsw i64 %47, 1
  %51 = getelementptr inbounds [300 x i32], [300 x i32]* %1, i64 0, i64 %50
  %52 = load i32, i32* %51, align 4, !tbaa !10
  %53 = icmp slt i32 %46, %52
  br i1 %53, label %54, label %56

54:                                               ; preds = %49
  %55 = getelementptr inbounds [300 x i32], [300 x i32]* %1, i64 0, i64 %47
  store i32 %52, i32* %55, align 4, !tbaa !10
  store i32 %46, i32* %51, align 4, !tbaa !10
  br label %56

56:                                               ; preds = %45, %49, %54, %18
  %57 = add nuw nsw i32 %19, 1
  %58 = icmp eq i32 %57, %12
  br i1 %58, label %59, label %18, !llvm.loop !12

59:                                               ; preds = %56
  %60 = load i32, i32* %6, align 4, !tbaa !10
  %61 = getelementptr inbounds [300 x i32], [300 x i32]* %1, i64 0, i64 0
  %62 = load i32, i32* %61, align 16, !tbaa !10
  %63 = icmp eq i32 %60, %62
  br i1 %63, label %68, label %64

64:                                               ; preds = %59
  %65 = call i32 @llvm.umax.i32(i32 %12, i32 1)
  %66 = add i32 %65, 1
  %67 = zext i32 %66 to i64
  br label %73

68:                                               ; preds = %59
  %69 = call i32 (i8*, ...) @printf(i8* nonnull dereferenceable(1) getelementptr inbounds ([3 x i8], [3 x i8]* @.str.1, i64 0, i64 0))
  br label %81

70:                                               ; preds = %73
  %71 = add nuw nsw i64 %75, 1
  %72 = icmp eq i64 %71, %67
  br i1 %72, label %81, label %73, !llvm.loop !13

73:                                               ; preds = %64, %70
  %74 = phi i32 [ %62, %64 ], [ %77, %70 ]
  %75 = phi i64 [ 1, %64 ], [ %71, %70 ]
  %76 = getelementptr inbounds [300 x i32], [300 x i32]* %1, i64 0, i64 %75
  %77 = load i32, i32* %76, align 4, !tbaa !10
  %78 = icmp slt i32 %77, %74
  br i1 %78, label %79, label %70

79:                                               ; preds = %73
  %80 = call i32 (i8*, ...) @printf(i8* nonnull dereferenceable(1) getelementptr inbounds ([3 x i8], [3 x i8]* @.str.2, i64 0, i64 0), i32 %77)
  br label %81

81:                                               ; preds = %70, %68, %79, %16
  call void @llvm.lifetime.end.p0i8(i64 1, i8* nonnull %2) #4
  call void @llvm.lifetime.end.p0i8(i64 1200, i8* nonnull %3) #4
  ret i32 0

82:                                               ; preds = %39
  %83 = getelementptr inbounds [300 x i32], [300 x i32]* %1, i64 0, i64 %33
  store i32 %43, i32* %83, align 4, !tbaa !10
  store i32 %40, i32* %42, align 8, !tbaa !10
  br label %84

84:                                               ; preds = %82, %39
  %85 = phi i32 [ %43, %39 ], [ %40, %82 ]
  %86 = add i64 %32, -2
  %87 = icmp eq i64 %86, 0
  br i1 %87, label %45, label %29, !llvm.loop !14
}

; Function Attrs: argmemonly mustprogress nofree nosync nounwind willreturn
declare void @llvm.lifetime.start.p0i8(i64 immarg, i8* nocapture) #1

; Function Attrs: nofree nounwind
declare noundef i32 @__isoc99_scanf(i8* nocapture noundef readonly, ...) local_unnamed_addr #2

; Function Attrs: nofree nounwind
declare noundef i32 @printf(i8* nocapture noundef readonly, ...) local_unnamed_addr #2

; Function Attrs: argmemonly mustprogress nofree nosync nounwind willreturn
declare void @llvm.lifetime.end.p0i8(i64 immarg, i8* nocapture) #1

; Function Attrs: nofree nosync nounwind readnone speculatable willreturn
declare i32 @llvm.umax.i32(i32, i32) #3


!llvm.module.flags = !{!0, !1, !2, !3}
!llvm.ident = !{!4}

!0 = !{i32 1, !"wchar_size", i32 4}
!1 = !{i32 7, !"PIC Level", i32 2}
!2 = !{i32 7, !"PIE Level", i32 2}
!3 = !{i32 7, !"uwtable", i32 1}
!4 = !{!"clang version 13.0.0"}
!5 = !{!6, !6, i64 0}
!6 = !{!"omnipotent char", !7, i64 0}
!7 = !{!"Simple C/C++ TBAA"}
!8 = distinct !{!8, !9}
!9 = !{!"llvm.loop.mustprogress"}
!10 = !{!11, !11, i64 0}
!11 = !{!"int", !6, i64 0}
!12 = distinct !{!12, !9}
!13 = distinct !{!13, !9}
!14 = distinct !{!14, !9}
